; Function Attrs: nounwind uwtable
define i64 @DenseGETRF(ptr noundef readonly captures(none) %0, ptr noundef writeonly captures(none) %1) local_unnamed_addr #0 {
  %3 = getelementptr inbounds nuw i8, ptr %0, i64 72
  %4 = load ptr, ptr %3, align 8, !tbaa !3
  %5 = getelementptr inbounds nuw i8, ptr %0, i64 8
  %6 = load i64, ptr %5, align 8, !tbaa !12
  %7 = getelementptr inbounds nuw i8, ptr %0, i64 16
  %8 = load i64, ptr %7, align 8, !tbaa !13
  %9 = tail call i64 @denseGETRF(ptr noundef %4, i64 noundef %6, i64 noundef %8, ptr noundef %1)
  ret i64 %9
}